target datalayout = "e-m:e-p270:32:32-p271:32:32-p272:64:64-i64:64-i128:128-f80:128-n8:16:32:64-S128"
target triple = "x86_64-pc-linux-gnu"

%struct.Aig_Man_t_ = type { ptr, ptr, ptr, ptr, ptr, ptr, ptr, %struct.Aig_Obj_t_, i32, i32, i32, i32, i32, i32, [7 x i32], i32, ptr, i32, ptr, i32, ptr, i32, i32, i32, ptr, i32, i32, i32, i32, i32, ptr, ptr, i32, ptr, ptr, i32, ptr, ptr, i32, i32, i32, ptr, ptr, ptr, ptr, ptr, ptr, ptr, ptr, ptr, ptr, ptr, ptr, ptr, ptr, i32, ptr, ptr, ptr, ptr, i32, i64, i64, i64, ptr, ptr }
%struct.Aig_Obj_t_ = type { %union.anon, ptr, ptr, i64, i32, i32, %union.anon.0 }
%union.anon = type { ptr }
%union.anon.0 = type { ptr }
%struct.Vec_Ptr_t_ = type { i32, i32, ptr }

; Function Attrs: inlinehint nounwind uwtable
define internal void @Vec_PtrShrink(ptr noundef %0, i32 noundef %1) #3 {
  %3 = alloca ptr, align 8
  %4 = alloca i32, align 4
  store ptr %0, ptr %3, align 8, !tbaa !36
  store i32 %1, ptr %4, align 4, !tbaa !14
  %5 = load i32, ptr %4, align 4, !tbaa !14
  %6 = load ptr, ptr %3, align 8, !tbaa !36
  %7 = getelementptr inbounds nuw %struct.Vec_Ptr_t_, ptr %6, i32 0, i32 1
  store i32 %5, ptr %7, align 4, !tbaa !57
  ret void
}

; Function Attrs: inlinehint nounwind uwtable
define internal i32 @Saig_ManRegNum(ptr noundef %0) #3 {
  %2 = alloca ptr, align 8
  store ptr %0, ptr %2, align 8, !tbaa !3
  %3 = load ptr, ptr %2, align 8, !tbaa !3
  %4 = getelementptr inbounds nuw %struct.Aig_Man_t_, ptr %3, i32 0, i32 8
  %5 = load i32, ptr %4, align 8, !tbaa !56
  ret i32 %5
}

; Function Attrs: inlinehint nounwind uwtable
define internal void @Vec_PtrWriteEntry(ptr noundef %0, i32 noundef %1, ptr noundef %2) #3 {
  %4 = alloca ptr, align 8
  %5 = alloca i32, align 4
  %6 = alloca ptr, align 8
  store ptr %0, ptr %4, align 8, !tbaa !36
  store i32 %1, ptr %5, align 4, !tbaa !14
  store ptr %2, ptr %6, align 8, !tbaa !39
  %7 = load ptr, ptr %6, align 8, !tbaa !39
  %8 = load ptr, ptr %4, align 8, !tbaa !36
  %9 = getelementptr inbounds nuw %struct.Vec_Ptr_t_, ptr %8, i32 0, i32 2
  %10 = load ptr, ptr %9, align 8, !tbaa !37
  %11 = load i32, ptr %5, align 4, !tbaa !14
  %12 = sext i32 %11 to i64
  %13 = getelementptr inbounds ptr, ptr %10, i64 %12
  store ptr %7, ptr %13, align 8, !tbaa !39
  ret void
}

; Function Attrs: inlinehint nounwind uwtable
define internal ptr @Vec_PtrEntry(ptr noundef %0, i32 noundef %1) #3 {
  %3 = alloca ptr, align 8
  %4 = alloca i32, align 4
  store ptr %0, ptr %3, align 8, !tbaa !36
  store i32 %1, ptr %4, align 4, !tbaa !14
  %5 = load ptr, ptr %3, align 8, !tbaa !36
  %6 = getelementptr inbounds nuw %struct.Vec_Ptr_t_, ptr %5, i32 0, i32 2
  %7 = load ptr, ptr %6, align 8, !tbaa !37
  %8 = load i32, ptr %4, align 4, !tbaa !14
  %9 = sext i32 %8 to i64
  %10 = getelementptr inbounds ptr, ptr %7, i64 %9
  %11 = load ptr, ptr %10, align 8, !tbaa !39
  ret ptr %11
}

; Function Attrs: inlinehint nounwind uwtable
define internal i32 @Saig_ManPoNum(ptr noundef %0) #3 {
  %2 = alloca ptr, align 8
  store ptr %0, ptr %2, align 8, !tbaa !3
  %3 = load ptr, ptr %2, align 8, !tbaa !3
  %4 = getelementptr inbounds nuw %struct.Aig_Man_t_, ptr %3, i32 0, i32 10
  %5 = load i32, ptr %4, align 8, !tbaa !35
  ret i32 %5
}

; Function Attrs: nounwind uwtable
define i32 @Saig_ManDemiterDual(ptr noundef %0, ptr noundef %1, ptr noundef %2) #0 {
  %4 = alloca ptr, align 8
  %5 = alloca ptr, align 8
  %6 = alloca ptr, align 8
  %7 = alloca ptr, align 8
  %8 = alloca ptr, align 8
  %9 = alloca i32, align 4
  %10 = alloca i32, align 4
  store ptr %0, ptr %4, align 8, !tbaa !3
  store ptr %1, ptr %5, align 8, !tbaa !91
  store ptr %2, ptr %6, align 8, !tbaa !91
  call void @llvm.lifetime.start.p0(i64 8, ptr %7) #10
  call void @llvm.lifetime.start.p0(i64 8, ptr %8) #10
  call void @llvm.lifetime.start.p0(i64 4, ptr %9) #10
  call void @llvm.lifetime.start.p0(i64 4, ptr %10) #10
  %11 = load ptr, ptr %4, align 8, !tbaa !3
  %12 = getelementptr inbounds nuw %struct.Aig_Man_t_, ptr %11, i32 0, i32 18
  %13 = load ptr, ptr %12, align 8, !tbaa !99
  %14 = icmp ne ptr %13, null
  br i1 %14, label %15, label %17

15:                                               ; preds = %3
  %16 = load ptr, ptr %4, align 8, !tbaa !3
  call void @Aig_ManFanoutStop(ptr noundef %16)
  br label %17

17:                                               ; preds = %15, %3
  store i32 0, ptr %10, align 4, !tbaa !14
  %18 = load ptr, ptr %4, align 8, !tbaa !3
  %19 = call ptr @Aig_ManDupSimple(ptr noundef %18)
  store ptr %19, ptr %7, align 8, !tbaa !3
  store i32 0, ptr %9, align 4, !tbaa !14
  br label %20

20:                                               ; preds = %48, %17
  %21 = load i32, ptr %9, align 4, !tbaa !14
  %22 = load ptr, ptr %7, align 8, !tbaa !3
  %23 = call i32 @Saig_ManPoNum(ptr noundef %22)
  %24 = icmp slt i32 %21, %23
  br i1 %24, label %25, label %31

25:                                               ; preds = %20
  %26 = load ptr, ptr %7, align 8, !tbaa !3
  %27 = getelementptr inbounds nuw %struct.Aig_Man_t_, ptr %26, i32 0, i32 3
  %28 = load ptr, ptr %27, align 8, !tbaa !15
  %29 = load i32, ptr %9, align 4, !tbaa !14
  %30 = call ptr @Vec_PtrEntry(ptr noundef %28, i32 noundef %29)
  store ptr %30, ptr %8, align 8, !tbaa !28
  br label %31

31:                                               ; preds = %25, %20
  %32 = phi i1 [ false, %20 ], [ true, %25 ]
  br i1 %32, label %33, label %51

33:                                               ; preds = %31
  %34 = load i32, ptr %9, align 4, !tbaa !14
  %35 = and i32 %34, 1
  %36 = icmp ne i32 %35, 0
  br i1 %36, label %37, label %40

37:                                               ; preds = %33
  %38 = load ptr, ptr %7, align 8, !tbaa !3
  %39 = load ptr, ptr %8, align 8, !tbaa !28
  call void @Aig_ObjDeletePo(ptr noundef %38, ptr noundef %39)
  br label %47

40:                                               ; preds = %33
  %41 = load ptr, ptr %7, align 8, !tbaa !3
  %42 = getelementptr inbounds nuw %struct.Aig_Man_t_, ptr %41, i32 0, i32 3
  %43 = load ptr, ptr %42, align 8, !tbaa !15
  %44 = load i32, ptr %10, align 4, !tbaa !14
  %45 = add nsw i32 %44, 1
  store i32 %45, ptr %10, align 4, !tbaa !14
  %46 = load ptr, ptr %8, align 8, !tbaa !28
  call void @Vec_PtrWriteEntry(ptr noundef %43, i32 noundef %44, ptr noundef %46)
  br label %47

47:                                               ; preds = %40, %37
  br label %48

48:                                               ; preds = %47
  %49 = load i32, ptr %9, align 4, !tbaa !14
  %50 = add nsw i32 %49, 1
  store i32 %50, ptr %9, align 4, !tbaa !14
  br label %20, !llvm.loop !100

51:                                               ; preds = %31
  store i32 0, ptr %9, align 4, !tbaa !14
  br label %52

52:                                               ; preds = %75, %51
  %53 = load i32, ptr %9, align 4, !tbaa !14
  %54 = load ptr, ptr %7, align 8, !tbaa !3
  %55 = call i32 @Saig_ManRegNum(ptr noundef %54)
  %56 = icmp slt i32 %53, %55
  br i1 %56, label %57, label %66

57:                                               ; preds = %52
  %58 = load ptr, ptr %7, align 8, !tbaa !3
  %59 = getelementptr inbounds nuw %struct.Aig_Man_t_, ptr %58, i32 0, i32 3
  %60 = load ptr, ptr %59, align 8, !tbaa !15
  %61 = load i32, ptr %9, align 4, !tbaa !14
  %62 = load ptr, ptr %7, align 8, !tbaa !3
  %63 = call i32 @Saig_ManPoNum(ptr noundef %62)
  %64 = add nsw i32 %61, %63
  %65 = call ptr @Vec_PtrEntry(ptr noundef %60, i32 noundef %64)
  store ptr %65, ptr %8, align 8, !tbaa !28
  br label %66

66:                                               ; preds = %57, %52
  %67 = phi i1 [ false, %52 ], [ true, %57 ]
  br i1 %67, label %68, label %78

68:                                               ; preds = %66
  %69 = load ptr, ptr %7, align 8, !tbaa !3
  %70 = getelementptr inbounds nuw %struct.Aig_Man_t_, ptr %69, i32 0, i32 3
  %71 = load ptr, ptr %70, align 8, !tbaa !15
  %72 = load i32, ptr %10, align 4, !tbaa !14
  %73 = add nsw i32 %72, 1
  store i32 %73, ptr %10, align 4, !tbaa !14
  %74 = load ptr, ptr %8, align 8, !tbaa !28
  call void @Vec_PtrWriteEntry(ptr noundef %71, i32 noundef %72, ptr noundef %74)
  br label %75

75:                                               ; preds = %68
  %76 = load i32, ptr %9, align 4, !tbaa !14
  %77 = add nsw i32 %76, 1
  store i32 %77, ptr %9, align 4, !tbaa !14
  br label %52, !llvm.loop !101

78:                                               ; preds = %66
  %79 = load ptr, ptr %7, align 8, !tbaa !3
  %80 = getelementptr inbounds nuw %struct.Aig_Man_t_, ptr %79, i32 0, i32 3
  %81 = load ptr, ptr %80, align 8, !tbaa !15
  %82 = load i32, ptr %10, align 4, !tbaa !14
  call void @Vec_PtrShrink(ptr noundef %81, i32 noundef %82)
  %83 = load i32, ptr %10, align 4, !tbaa !14
  %84 = load ptr, ptr %7, align 8, !tbaa !3
  %85 = call i32 @Saig_ManRegNum(ptr noundef %84)
  %86 = sub nsw i32 %83, %85
  %87 = load ptr, ptr %7, align 8, !tbaa !3
  %88 = getelementptr inbounds nuw %struct.Aig_Man_t_, ptr %87, i32 0, i32 10
  store i32 %86, ptr %88, align 8, !tbaa !35
  %89 = load ptr, ptr %7, align 8, !tbaa !3
  %90 = call i32 @Aig_ManSeqCleanup(ptr noundef %89)
  %91 = load ptr, ptr %7, align 8, !tbaa !3
  %92 = call ptr @Aig_ManDupSimple(ptr noundef %91)
  %93 = load ptr, ptr %5, align 8, !tbaa !91
  store ptr %92, ptr %93, align 8, !tbaa !3
  %94 = load ptr, ptr %7, align 8, !tbaa !3
  call void @Aig_ManStop(ptr noundef %94)
  store i32 0, ptr %10, align 4, !tbaa !14
  %95 = load ptr, ptr %4, align 8, !tbaa !3
  %96 = call ptr @Aig_ManDupSimple(ptr noundef %95)
  store ptr %96, ptr %7, align 8, !tbaa !3
  store i32 0, ptr %9, align 4, !tbaa !14
  br label %97

97:                                               ; preds = %125, %78
  %98 = load i32, ptr %9, align 4, !tbaa !14
  %99 = load ptr, ptr %7, align 8, !tbaa !3
  %100 = call i32 @Saig_ManPoNum(ptr noundef %99)
  %101 = icmp slt i32 %98, %100
  br i1 %101, label %102, label %108

102:                                              ; preds = %97
  %103 = load ptr, ptr %7, align 8, !tbaa !3
  %104 = getelementptr inbounds nuw %struct.Aig_Man_t_, ptr %103, i32 0, i32 3
  %105 = load ptr, ptr %104, align 8, !tbaa !15
  %106 = load i32, ptr %9, align 4, !tbaa !14
  %107 = call ptr @Vec_PtrEntry(ptr noundef %105, i32 noundef %106)
  store ptr %107, ptr %8, align 8, !tbaa !28
  br label %108

108:                                              ; preds = %102, %97
  %109 = phi i1 [ false, %97 ], [ true, %102 ]
  br i1 %109, label %110, label %128

110:                                              ; preds = %108
  %111 = load i32, ptr %9, align 4, !tbaa !14
  %112 = and i32 %111, 1
  %113 = icmp ne i32 %112, 0
  br i1 %113, label %114, label %121

114:                                              ; preds = %110
  %115 = load ptr, ptr %7, align 8, !tbaa !3
  %116 = getelementptr inbounds nuw %struct.Aig_Man_t_, ptr %115, i32 0, i32 3
  %117 = load ptr, ptr %116, align 8, !tbaa !15
  %118 = load i32, ptr %10, align 4, !tbaa !14
  %119 = add nsw i32 %118, 1
  store i32 %119, ptr %10, align 4, !tbaa !14
  %120 = load ptr, ptr %8, align 8, !tbaa !28
  call void @Vec_PtrWriteEntry(ptr noundef %117, i32 noundef %118, ptr noundef %120)
  br label %124

121:                                              ; preds = %110
  %122 = load ptr, ptr %7, align 8, !tbaa !3
  %123 = load ptr, ptr %8, align 8, !tbaa !28
  call void @Aig_ObjDeletePo(ptr noundef %122, ptr noundef %123)
  br label %124

124:                                              ; preds = %121, %114
  br label %125

125:                                              ; preds = %124
  %126 = load i32, ptr %9, align 4, !tbaa !14
  %127 = add nsw i32 %126, 1
  store i32 %127, ptr %9, align 4, !tbaa !14
  br label %97, !llvm.loop !102

128:                                              ; preds = %108
  store i32 0, ptr %9, align 4, !tbaa !14
  br label %129

129:                                              ; preds = %152, %128
  %130 = load i32, ptr %9, align 4, !tbaa !14
  %131 = load ptr, ptr %7, align 8, !tbaa !3
  %132 = call i32 @Saig_ManRegNum(ptr noundef %131)
  %133 = icmp slt i32 %130, %132
  br i1 %133, label %134, label %143

134:                                              ; preds = %129
  %135 = load ptr, ptr %7, align 8, !tbaa !3
  %136 = getelementptr inbounds nuw %struct.Aig_Man_t_, ptr %135, i32 0, i32 3
  %137 = load ptr, ptr %136, align 8, !tbaa !15
  %138 = load i32, ptr %9, align 4, !tbaa !14
  %139 = load ptr, ptr %7, align 8, !tbaa !3
  %140 = call i32 @Saig_ManPoNum(ptr noundef %139)
  %141 = add nsw i32 %138, %140
  %142 = call ptr @Vec_PtrEntry(ptr noundef %137, i32 noundef %141)
  store ptr %142, ptr %8, align 8, !tbaa !28
  br label %143

143:                                              ; preds = %134, %129
  %144 = phi i1 [ false, %129 ], [ true, %134 ]
  br i1 %144, label %145, label %155

145:                                              ; preds = %143
  %146 = load ptr, ptr %7, align 8, !tbaa !3
  %147 = getelementptr inbounds nuw %struct.Aig_Man_t_, ptr %146, i32 0, i32 3
  %148 = load ptr, ptr %147, align 8, !tbaa !15
  %149 = load i32, ptr %10, align 4, !tbaa !14
  %150 = add nsw i32 %149, 1
  store i32 %150, ptr %10, align 4, !tbaa !14
  %151 = load ptr, ptr %8, align 8, !tbaa !28
  call void @Vec_PtrWriteEntry(ptr noundef %148, i32 noundef %149, ptr noundef %151)
  br label %152

152:                                              ; preds = %145
  %153 = load i32, ptr %9, align 4, !tbaa !14
  %154 = add nsw i32 %153, 1
  store i32 %154, ptr %9, align 4, !tbaa !14
  br label %129, !llvm.loop !103

155:                                              ; preds = %143
  %156 = load ptr, ptr %7, align 8, !tbaa !3
  %157 = getelementptr inbounds nuw %struct.Aig_Man_t_, ptr %156, i32 0, i32 3
  %158 = load ptr, ptr %157, align 8, !tbaa !15
  %159 = load i32, ptr %10, align 4, !tbaa !14
  call void @Vec_PtrShrink(ptr noundef %158, i32 noundef %159)
  %160 = load i32, ptr %10, align 4, !tbaa !14
  %161 = load ptr, ptr %7, align 8, !tbaa !3
  %162 = call i32 @Saig_ManRegNum(ptr noundef %161)
  %163 = sub nsw i32 %160, %162
  %164 = load ptr, ptr %7, align 8, !tbaa !3
  %165 = getelementptr inbounds nuw %struct.Aig_Man_t_, ptr %164, i32 0, i32 10
  store i32 %163, ptr %165, align 8, !tbaa !35
  %166 = load ptr, ptr %7, align 8, !tbaa !3
  %167 = call i32 @Aig_ManSeqCleanup(ptr noundef %166)
  %168 = load ptr, ptr %7, align 8, !tbaa !3
  %169 = call ptr @Aig_ManDupSimple(ptr noundef %168)
  %170 = load ptr, ptr %6, align 8, !tbaa !91
  store ptr %169, ptr %170, align 8, !tbaa !3
  %171 = load ptr, ptr %7, align 8, !tbaa !3
  call void @Aig_ManStop(ptr noundef %171)
  call void @llvm.lifetime.end.p0(i64 4, ptr %10) #10
  call void @llvm.lifetime.end.p0(i64 4, ptr %9) #10
  call void @llvm.lifetime.end.p0(i64 8, ptr %8) #10
  call void @llvm.lifetime.end.p0(i64 8, ptr %7) #10
  ret i32 1
}