; Function Attrs: nounwind uwtable
define noundef i32 @Saig_ManDemiterDual(ptr noundef %0, ptr noundef writeonly captures(none) %1, ptr noundef writeonly captures(none) %2) local_unnamed_addr #3 {
  %4 = getelementptr inbounds nuw i8, ptr %0, i64 176
  %5 = load ptr, ptr %4, align 8, !tbaa !89
  %.not = icmp eq ptr %5, null
  br i1 %.not, label %7, label %6

6:                                                ; preds = %3
  tail call void @Aig_ManFanoutStop(ptr noundef nonnull %0) #18
  br label %7

7:                                                ; preds = %6, %3
  %8 = tail call ptr @Aig_ManDupSimple(ptr noundef nonnull %0) #18
  %9 = getelementptr i8, ptr %8, i64 112
  %.val7589 = load i32, ptr %9, align 8, !tbaa !25
  %10 = icmp sgt i32 %.val7589, 0
  br i1 %10, label %.lr.ph, label %.critedge.preheader

.lr.ph:                                           ; preds = %7
  %11 = getelementptr inbounds nuw i8, ptr %8, i64 24
  br label %17

.critedge.preheader:                              ; preds = %28, %7
  %.0.lcssa = phi i32 [ 0, %7 ], [ %.1, %28 ]
  %.val75.lcssa = phi i32 [ %.val7589, %7 ], [ %.val75, %28 ]
  %12 = getelementptr i8, ptr %8, i64 104
  %.val83 = load i32, ptr %12, align 8, !tbaa !41
  %13 = icmp sgt i32 %.val83, 0
  br i1 %13, label %.lr.ph95, label %.critedge2

.lr.ph95:                                         ; preds = %.critedge.preheader
  %14 = getelementptr inbounds nuw i8, ptr %8, i64 24
  %15 = sext i32 %.0.lcssa to i64
  %16 = sext i32 %.val75.lcssa to i64
  %wide.trip.count = zext nneg i32 %.val83 to i64
  br label %.critedge

17:                                               ; preds = %.lr.ph, %28
  %.val75132 = phi i32 [ %.val7589, %.lr.ph ], [ %.val75, %28 ]
  %indvars.iv = phi i64 [ 0, %.lr.ph ], [ %indvars.iv.next, %28 ]
  %.091 = phi i32 [ 0, %.lr.ph ], [ %.1, %28 ]
  %18 = load ptr, ptr %11, align 8, !tbaa !27
  %19 = getelementptr i8, ptr %18, i64 8
  %.val79 = load ptr, ptr %19, align 8, !tbaa !28
  %20 = getelementptr inbounds nuw ptr, ptr %.val79, i64 %indvars.iv
  %21 = load ptr, ptr %20, align 8, !tbaa !31
  %22 = and i64 %indvars.iv, 1
  %.not72 = icmp eq i64 %22, 0
  br i1 %.not72, label %24, label %23

23:                                               ; preds = %17
  tail call void @Aig_ObjDeletePo(ptr noundef nonnull %8, ptr noundef %21) #18
  %.val75.pre = load i32, ptr %9, align 8, !tbaa !25
  br label %28

24:                                               ; preds = %17
  %25 = add nsw i32 %.091, 1
  %26 = sext i32 %.091 to i64
  %27 = getelementptr inbounds ptr, ptr %.val79, i64 %26
  store ptr %21, ptr %27, align 8, !tbaa !31
  br label %28

28:                                               ; preds = %23, %24
  %.val75 = phi i32 [ %.val75.pre, %23 ], [ %.val75132, %24 ]
  %.1 = phi i32 [ %.091, %23 ], [ %25, %24 ]
  %indvars.iv.next = add nuw nsw i64 %indvars.iv, 1
  %29 = sext i32 %.val75 to i64
  %30 = icmp slt i64 %indvars.iv.next, %29
  br i1 %30, label %17, label %.critedge.preheader, !llvm.loop !90

.critedge:                                        ; preds = %.lr.ph95, %.critedge
  %indvars.iv115 = phi i64 [ 0, %.lr.ph95 ], [ %indvars.iv.next116, %.critedge ]
  %indvars.iv113 = phi i64 [ %15, %.lr.ph95 ], [ %indvars.iv.next114, %.critedge ]
  %31 = load ptr, ptr %14, align 8, !tbaa !27
  %32 = getelementptr i8, ptr %31, i64 8
  %.val78 = load ptr, ptr %32, align 8, !tbaa !28
  %33 = getelementptr ptr, ptr %.val78, i64 %indvars.iv115
  %34 = getelementptr ptr, ptr %33, i64 %16
  %35 = load ptr, ptr %34, align 8, !tbaa !31
  %indvars.iv.next114 = add nsw i64 %indvars.iv113, 1
  %36 = getelementptr inbounds ptr, ptr %.val78, i64 %indvars.iv113
  store ptr %35, ptr %36, align 8, !tbaa !31
  %indvars.iv.next116 = add nuw nsw i64 %indvars.iv115, 1
  %exitcond.not = icmp eq i64 %indvars.iv.next116, %wide.trip.count
  br i1 %exitcond.not, label %.critedge2.loopexit, label %.critedge, !llvm.loop !91

.critedge2.loopexit:                              ; preds = %.critedge
  %37 = trunc nsw i64 %indvars.iv.next114 to i32
  br label %.critedge2

.critedge2:                                       ; preds = %.critedge2.loopexit, %.critedge.preheader
  %.2.lcssa = phi i32 [ %.0.lcssa, %.critedge.preheader ], [ %37, %.critedge2.loopexit ]
  %38 = getelementptr inbounds nuw i8, ptr %8, i64 24
  %39 = load ptr, ptr %38, align 8, !tbaa !27
  %40 = getelementptr inbounds nuw i8, ptr %39, i64 4
  store i32 %.2.lcssa, ptr %40, align 4, !tbaa !37
  %41 = sub nsw i32 %.2.lcssa, %.val83
  store i32 %41, ptr %9, align 8, !tbaa !25
  %42 = tail call i32 @Aig_ManSeqCleanup(ptr noundef nonnull %8) #18
  %43 = tail call ptr @Aig_ManDupSimple(ptr noundef nonnull %8) #18
  store ptr %43, ptr %1, align 8, !tbaa !85
  tail call void @Aig_ManStop(ptr noundef nonnull %8) #18
  %44 = tail call ptr @Aig_ManDupSimple(ptr noundef nonnull %0) #18
  %45 = getelementptr i8, ptr %44, i64 112
  %.val7398 = load i32, ptr %45, align 8, !tbaa !25
  %46 = icmp sgt i32 %.val7398, 0
  br i1 %46, label %.lr.ph101, label %.critedge4.preheader

.lr.ph101:                                        ; preds = %.critedge2
  %47 = getelementptr inbounds nuw i8, ptr %44, i64 24
  br label %53

.critedge4.preheader:                             ; preds = %64, %.critedge2
  %.3.lcssa = phi i32 [ 0, %.critedge2 ], [ %.4, %64 ]
  %.val73.lcssa = phi i32 [ %.val7398, %.critedge2 ], [ %.val73, %64 ]
  %48 = getelementptr i8, ptr %44, i64 104
  %.val81 = load i32, ptr %48, align 8, !tbaa !41
  %49 = icmp sgt i32 %.val81, 0
  br i1 %49, label %.lr.ph106, label %.critedge6

.lr.ph106:                                        ; preds = %.critedge4.preheader
  %50 = getelementptr inbounds nuw i8, ptr %44, i64 24
  %51 = sext i32 %.3.lcssa to i64
  %52 = sext i32 %.val73.lcssa to i64
  %wide.trip.count130 = zext nneg i32 %.val81 to i64
  br label %.critedge4

53:                                               ; preds = %.lr.ph101, %64
  %.val73134 = phi i32 [ %.val7398, %.lr.ph101 ], [ %.val73, %64 ]
  %indvars.iv120 = phi i64 [ 0, %.lr.ph101 ], [ %indvars.iv.next121, %64 ]
  %.3100 = phi i32 [ 0, %.lr.ph101 ], [ %.4, %64 ]
  %54 = load ptr, ptr %47, align 8, !tbaa !27
  %55 = getelementptr i8, ptr %54, i64 8
  %.val77 = load ptr, ptr %55, align 8, !tbaa !28
  %56 = getelementptr inbounds nuw ptr, ptr %.val77, i64 %indvars.iv120
  %57 = load ptr, ptr %56, align 8, !tbaa !31
  %58 = and i64 %indvars.iv120, 1
  %.not71 = icmp eq i64 %58, 0
  br i1 %.not71, label %63, label %59

59:                                               ; preds = %53
  %60 = add nsw i32 %.3100, 1
  %61 = sext i32 %.3100 to i64
  %62 = getelementptr inbounds ptr, ptr %.val77, i64 %61
  store ptr %57, ptr %62, align 8, !tbaa !31
  br label %64

63:                                               ; preds = %53
  tail call void @Aig_ObjDeletePo(ptr noundef nonnull %44, ptr noundef %57) #18
  %.val73.pre = load i32, ptr %45, align 8, !tbaa !25
  br label %64

64:                                               ; preds = %59, %63
  %.val73 = phi i32 [ %.val73134, %59 ], [ %.val73.pre, %63 ]
  %.4 = phi i32 [ %60, %59 ], [ %.3100, %63 ]
  %indvars.iv.next121 = add nuw nsw i64 %indvars.iv120, 1
  %65 = sext i32 %.val73 to i64
  %66 = icmp slt i64 %indvars.iv.next121, %65
  br i1 %66, label %53, label %.critedge4.preheader, !llvm.loop !92

.critedge4:                                       ; preds = %.lr.ph106, %.critedge4
  %indvars.iv125 = phi i64 [ 0, %.lr.ph106 ], [ %indvars.iv.next126, %.critedge4 ]
  %indvars.iv123 = phi i64 [ %51, %.lr.ph106 ], [ %indvars.iv.next124, %.critedge4 ]
  %67 = load ptr, ptr %50, align 8, !tbaa !27
  %68 = getelementptr i8, ptr %67, i64 8
  %.val76 = load ptr, ptr %68, align 8, !tbaa !28
  %69 = getelementptr ptr, ptr %.val76, i64 %indvars.iv125
  %70 = getelementptr ptr, ptr %69, i64 %52
  %71 = load ptr, ptr %70, align 8, !tbaa !31
  %indvars.iv.next124 = add nsw i64 %indvars.iv123, 1
  %72 = getelementptr inbounds ptr, ptr %.val76, i64 %indvars.iv123
  store ptr %71, ptr %72, align 8, !tbaa !31
  %indvars.iv.next126 = add nuw nsw i64 %indvars.iv125, 1
  %exitcond131.not = icmp eq i64 %indvars.iv.next126, %wide.trip.count130
  br i1 %exitcond131.not, label %.critedge6.loopexit, label %.critedge4, !llvm.loop !93

.critedge6.loopexit:                              ; preds = %.critedge4
  %73 = trunc nsw i64 %indvars.iv.next124 to i32
  br label %.critedge6

.critedge6:                                       ; preds = %.critedge6.loopexit, %.critedge4.preheader
  %.5.lcssa = phi i32 [ %.3.lcssa, %.critedge4.preheader ], [ %73, %.critedge6.loopexit ]
  %74 = getelementptr inbounds nuw i8, ptr %44, i64 24
  %75 = load ptr, ptr %74, align 8, !tbaa !27
  %76 = getelementptr inbounds nuw i8, ptr %75, i64 4
  store i32 %.5.lcssa, ptr %76, align 4, !tbaa !37
  %77 = sub nsw i32 %.5.lcssa, %.val81
  store i32 %77, ptr %45, align 8, !tbaa !25
  %78 = tail call i32 @Aig_ManSeqCleanup(ptr noundef nonnull %44) #18
  %79 = tail call ptr @Aig_ManDupSimple(ptr noundef nonnull %44) #18
  store ptr %79, ptr %2, align 8, !tbaa !85
  tail call void @Aig_ManStop(ptr noundef nonnull %44) #18
  ret i32 1
}